
a.out:     file format elf64-littleriscv


Disassembly of section .text:

00000000cc000000 <main>:
    cc000000:	6285                	lui	t0,0x1
    cc000002:	8002829b          	addiw	t0,t0,-2048
    cc000006:	3002a073          	csrs	mstatus,t0
    cc00000a:	00000297          	auipc	t0,0x0
    cc00000e:	01028293          	addi	t0,t0,16 # cc00001a <supervisor>
    cc000012:	34129073          	csrw	mepc,t0
    cc000016:	30200073          	mret

00000000cc00001a <supervisor>:
    cc00001a:	00003297          	auipc	t0,0x3
    cc00001e:	fe628293          	addi	t0,t0,-26 # cc003000 <L3_PT>
    cc000022:	00004317          	auipc	t1,0x4
    cc000026:	fde30313          	addi	t1,t1,-34 # cc004000 <L2_PT>
    cc00002a:	00235313          	srli	t1,t1,0x2
    cc00002e:	00136313          	ori	t1,t1,1
    cc000032:	0062b023          	sd	t1,0(t0)
    cc000036:	00004297          	auipc	t0,0x4
    cc00003a:	fca28293          	addi	t0,t0,-54 # cc004000 <L2_PT>
    cc00003e:	00005317          	auipc	t1,0x5
    cc000042:	fc230313          	addi	t1,t1,-62 # cc005000 <L1_PT_User>
    cc000046:	00235313          	srli	t1,t1,0x2
    cc00004a:	00136313          	ori	t1,t1,1
    cc00004e:	0062b023          	sd	t1,0(t0)
    cc000052:	00007317          	auipc	t1,0x7
    cc000056:	fae30313          	addi	t1,t1,-82 # cc007000 <L1_PT_Id>
    cc00005a:	00235313          	srli	t1,t1,0x2
    cc00005e:	00136313          	ori	t1,t1,1
    cc000062:	0062bc23          	sd	t1,24(t0)
    cc000066:	00005297          	auipc	t0,0x5
    cc00006a:	f9a28293          	addi	t0,t0,-102 # cc005000 <L1_PT_User>
    cc00006e:	00006317          	auipc	t1,0x6
    cc000072:	f9230313          	addi	t1,t1,-110 # cc006000 <L0_PT_User>
    cc000076:	00235313          	srli	t1,t1,0x2
    cc00007a:	00136313          	ori	t1,t1,1
    cc00007e:	0062b023          	sd	t1,0(t0)
    cc000082:	00007297          	auipc	t0,0x7
    cc000086:	f7e28293          	addi	t0,t0,-130 # cc007000 <L1_PT_Id>
    cc00008a:	00008317          	auipc	t1,0x8
    cc00008e:	f7630313          	addi	t1,t1,-138 # cc008000 <L0_PT_Id>
    cc000092:	00235313          	srli	t1,t1,0x2
    cc000096:	00136313          	ori	t1,t1,1
    cc00009a:	30000393          	li	t2,768
    cc00009e:	929e                	add	t0,t0,t2
    cc0000a0:	0062b023          	sd	t1,0(t0)
    cc0000a4:	00006297          	auipc	t0,0x6
    cc0000a8:	f5c28293          	addi	t0,t0,-164 # cc006000 <L0_PT_User>
    cc0000ac:	00001317          	auipc	t1,0x1
    cc0000b0:	f5430313          	addi	t1,t1,-172 # cc001000 <user_code>
    cc0000b4:	00235313          	srli	t1,t1,0x2
    cc0000b8:	0df36313          	ori	t1,t1,223
    cc0000bc:	0062b023          	sd	t1,0(t0)
    cc0000c0:	00006297          	auipc	t0,0x6
    cc0000c4:	f4028293          	addi	t0,t0,-192 # cc006000 <L0_PT_User>
    cc0000c8:	00002317          	auipc	t1,0x2
    cc0000cc:	f3830313          	addi	t1,t1,-200 # cc002000 <data_start>
    cc0000d0:	00235313          	srli	t1,t1,0x2
    cc0000d4:	0df36313          	ori	t1,t1,223
    cc0000d8:	0062b423          	sd	t1,8(t0)
    cc0000dc:	00008297          	auipc	t0,0x8
    cc0000e0:	f2428293          	addi	t0,t0,-220 # cc008000 <L0_PT_Id>
    cc0000e4:	00000317          	auipc	t1,0x0
    cc0000e8:	f1c30313          	addi	t1,t1,-228 # cc000000 <main>
    cc0000ec:	00235313          	srli	t1,t1,0x2
    cc0000f0:	0cf36313          	ori	t1,t1,207
    cc0000f4:	0062b023          	sd	t1,0(t0)
    cc0000f8:	00003297          	auipc	t0,0x3
    cc0000fc:	f0828293          	addi	t0,t0,-248 # cc003000 <L3_PT>
    cc000100:	00c2d293          	srli	t0,t0,0xc
    cc000104:	ff90031b          	addiw	t1,zero,-7
    cc000108:	1372                	slli	t1,t1,0x3c
    cc00010a:	0062e2b3          	or	t0,t0,t1
    cc00010e:	00009317          	auipc	t1,0x9
    cc000112:	ef230313          	addi	t1,t1,-270 # cc009000 <satp_config>
    cc000116:	00533023          	sd	t0,0(t1)
    cc00011a:	10000293          	li	t0,256
    cc00011e:	1002b073          	csrc	sstatus,t0
    cc000122:	00009317          	auipc	t1,0x9
    cc000126:	ede30313          	addi	t1,t1,-290 # cc009000 <satp_config>
    cc00012a:	00033383          	ld	t2,0(t1)
    cc00012e:	12000073          	sfence.vma
    cc000132:	18039073          	csrw	satp,t2
    cc000136:	12000073          	sfence.vma
    cc00013a:	4e81                	li	t4,0
    cc00013c:	141e9073          	csrw	sepc,t4
    cc000140:	10200073          	sret
    cc000144:	00000013          	nop
    cc000148:	00000013          	nop
    cc00014c:	00000013          	nop
    cc000150:	00000013          	nop
    cc000154:	00000013          	nop
    cc000158:	00000013          	nop
    cc00015c:	00000013          	nop
    cc000160:	00000013          	nop
    cc000164:	00000013          	nop
    cc000168:	00000013          	nop
    cc00016c:	00000013          	nop
    cc000170:	00000013          	nop
    cc000174:	00000013          	nop
    cc000178:	00000013          	nop
    cc00017c:	00000013          	nop
    cc000180:	00000013          	nop
    cc000184:	00000013          	nop
    cc000188:	00000013          	nop
    cc00018c:	00000013          	nop
    cc000190:	00000013          	nop
    cc000194:	00000013          	nop
    cc000198:	00000013          	nop
    cc00019c:	00000013          	nop
    cc0001a0:	00000013          	nop
    cc0001a4:	00000013          	nop
    cc0001a8:	00000013          	nop
    cc0001ac:	00000013          	nop
    cc0001b0:	00000013          	nop
    cc0001b4:	00000013          	nop
    cc0001b8:	00000013          	nop
    cc0001bc:	00000013          	nop
    cc0001c0:	00000013          	nop
    cc0001c4:	00000013          	nop
    cc0001c8:	00000013          	nop
    cc0001cc:	00000013          	nop
    cc0001d0:	00000013          	nop
    cc0001d4:	00000013          	nop
    cc0001d8:	00000013          	nop
    cc0001dc:	00000013          	nop
    cc0001e0:	00000013          	nop
    cc0001e4:	00000013          	nop
    cc0001e8:	00000013          	nop
    cc0001ec:	00000013          	nop
    cc0001f0:	00000013          	nop
    cc0001f4:	00000013          	nop
    cc0001f8:	00000013          	nop
    cc0001fc:	00000013          	nop
    cc000200:	00000013          	nop
    cc000204:	00000013          	nop
    cc000208:	00000013          	nop
    cc00020c:	00000013          	nop
    cc000210:	00000013          	nop
    cc000214:	00000013          	nop
    cc000218:	00000013          	nop
    cc00021c:	00000013          	nop
    cc000220:	00000013          	nop
    cc000224:	00000013          	nop
    cc000228:	00000013          	nop
    cc00022c:	00000013          	nop
    cc000230:	00000013          	nop
    cc000234:	00000013          	nop
    cc000238:	00000013          	nop
    cc00023c:	00000013          	nop
    cc000240:	00000013          	nop
    cc000244:	00000013          	nop
    cc000248:	00000013          	nop
    cc00024c:	00000013          	nop
    cc000250:	00000013          	nop
    cc000254:	00000013          	nop
    cc000258:	00000013          	nop
    cc00025c:	00000013          	nop
    cc000260:	00000013          	nop
    cc000264:	00000013          	nop
    cc000268:	00000013          	nop
    cc00026c:	00000013          	nop
    cc000270:	00000013          	nop
    cc000274:	00000013          	nop
    cc000278:	00000013          	nop
    cc00027c:	00000013          	nop
    cc000280:	00000013          	nop
    cc000284:	00000013          	nop
    cc000288:	00000013          	nop
    cc00028c:	00000013          	nop
    cc000290:	00000013          	nop
    cc000294:	00000013          	nop
    cc000298:	00000013          	nop
    cc00029c:	00000013          	nop
    cc0002a0:	00000013          	nop
    cc0002a4:	00000013          	nop
    cc0002a8:	00000013          	nop
    cc0002ac:	00000013          	nop
    cc0002b0:	00000013          	nop
    cc0002b4:	00000013          	nop
    cc0002b8:	00000013          	nop
    cc0002bc:	00000013          	nop
    cc0002c0:	00000013          	nop
    cc0002c4:	00000013          	nop
    cc0002c8:	00000013          	nop
    cc0002cc:	00000013          	nop
    cc0002d0:	00000013          	nop
    cc0002d4:	00000013          	nop
    cc0002d8:	00000013          	nop
    cc0002dc:	00000013          	nop
    cc0002e0:	00000013          	nop
    cc0002e4:	00000013          	nop
    cc0002e8:	00000013          	nop
    cc0002ec:	00000013          	nop
    cc0002f0:	00000013          	nop
    cc0002f4:	00000013          	nop
    cc0002f8:	00000013          	nop
    cc0002fc:	00000013          	nop
    cc000300:	00000013          	nop
    cc000304:	00000013          	nop
    cc000308:	00000013          	nop
    cc00030c:	00000013          	nop
    cc000310:	00000013          	nop
    cc000314:	00000013          	nop
    cc000318:	00000013          	nop
    cc00031c:	00000013          	nop
    cc000320:	00000013          	nop
    cc000324:	00000013          	nop
    cc000328:	00000013          	nop
    cc00032c:	00000013          	nop
    cc000330:	00000013          	nop
    cc000334:	00000013          	nop
    cc000338:	00000013          	nop
    cc00033c:	00000013          	nop
    cc000340:	00000013          	nop
    cc000344:	00000013          	nop
    cc000348:	00000013          	nop
    cc00034c:	00000013          	nop
    cc000350:	00000013          	nop
    cc000354:	00000013          	nop
    cc000358:	00000013          	nop
    cc00035c:	00000013          	nop
    cc000360:	00000013          	nop
    cc000364:	00000013          	nop
    cc000368:	00000013          	nop
    cc00036c:	00000013          	nop
    cc000370:	00000013          	nop
    cc000374:	00000013          	nop
    cc000378:	00000013          	nop
    cc00037c:	00000013          	nop
    cc000380:	00000013          	nop
    cc000384:	00000013          	nop
    cc000388:	00000013          	nop
    cc00038c:	00000013          	nop
    cc000390:	00000013          	nop
    cc000394:	00000013          	nop
    cc000398:	00000013          	nop
    cc00039c:	00000013          	nop
    cc0003a0:	00000013          	nop
    cc0003a4:	00000013          	nop
    cc0003a8:	00000013          	nop
    cc0003ac:	00000013          	nop
    cc0003b0:	00000013          	nop
    cc0003b4:	00000013          	nop
    cc0003b8:	00000013          	nop
    cc0003bc:	00000013          	nop
    cc0003c0:	00000013          	nop
    cc0003c4:	00000013          	nop
    cc0003c8:	00000013          	nop
    cc0003cc:	00000013          	nop
    cc0003d0:	00000013          	nop
    cc0003d4:	00000013          	nop
    cc0003d8:	00000013          	nop
    cc0003dc:	00000013          	nop
    cc0003e0:	00000013          	nop
    cc0003e4:	00000013          	nop
    cc0003e8:	00000013          	nop
    cc0003ec:	00000013          	nop
    cc0003f0:	00000013          	nop
    cc0003f4:	00000013          	nop
    cc0003f8:	00000013          	nop
    cc0003fc:	00000013          	nop
    cc000400:	00000013          	nop
    cc000404:	00000013          	nop
    cc000408:	00000013          	nop
    cc00040c:	00000013          	nop
    cc000410:	00000013          	nop
    cc000414:	00000013          	nop
    cc000418:	00000013          	nop
    cc00041c:	00000013          	nop
    cc000420:	00000013          	nop
    cc000424:	00000013          	nop
    cc000428:	00000013          	nop
    cc00042c:	00000013          	nop
    cc000430:	00000013          	nop
    cc000434:	00000013          	nop
    cc000438:	00000013          	nop
    cc00043c:	00000013          	nop
    cc000440:	00000013          	nop
    cc000444:	00000013          	nop
    cc000448:	00000013          	nop
    cc00044c:	00000013          	nop
    cc000450:	00000013          	nop
    cc000454:	00000013          	nop
    cc000458:	00000013          	nop
    cc00045c:	00000013          	nop
    cc000460:	00000013          	nop
    cc000464:	00000013          	nop
    cc000468:	00000013          	nop
    cc00046c:	00000013          	nop
    cc000470:	00000013          	nop
    cc000474:	00000013          	nop
    cc000478:	00000013          	nop
    cc00047c:	00000013          	nop
    cc000480:	00000013          	nop
    cc000484:	00000013          	nop
    cc000488:	00000013          	nop
    cc00048c:	00000013          	nop
    cc000490:	00000013          	nop
    cc000494:	00000013          	nop
    cc000498:	00000013          	nop
    cc00049c:	00000013          	nop
    cc0004a0:	00000013          	nop
    cc0004a4:	00000013          	nop
    cc0004a8:	00000013          	nop
    cc0004ac:	00000013          	nop
    cc0004b0:	00000013          	nop
    cc0004b4:	00000013          	nop
    cc0004b8:	00000013          	nop
    cc0004bc:	00000013          	nop
    cc0004c0:	00000013          	nop
    cc0004c4:	00000013          	nop
    cc0004c8:	00000013          	nop
    cc0004cc:	00000013          	nop
    cc0004d0:	00000013          	nop
    cc0004d4:	00000013          	nop
    cc0004d8:	00000013          	nop
    cc0004dc:	00000013          	nop
    cc0004e0:	00000013          	nop
    cc0004e4:	00000013          	nop
    cc0004e8:	00000013          	nop
    cc0004ec:	00000013          	nop
    cc0004f0:	00000013          	nop
    cc0004f4:	00000013          	nop
    cc0004f8:	00000013          	nop
    cc0004fc:	00000013          	nop
    cc000500:	00000013          	nop
    cc000504:	00000013          	nop
    cc000508:	00000013          	nop
    cc00050c:	00000013          	nop
    cc000510:	00000013          	nop
    cc000514:	00000013          	nop
    cc000518:	00000013          	nop
    cc00051c:	00000013          	nop
    cc000520:	00000013          	nop
    cc000524:	00000013          	nop
    cc000528:	00000013          	nop
    cc00052c:	00000013          	nop
    cc000530:	00000013          	nop
    cc000534:	00000013          	nop
    cc000538:	00000013          	nop
    cc00053c:	00000013          	nop
    cc000540:	00000013          	nop
    cc000544:	00000013          	nop
    cc000548:	00000013          	nop
    cc00054c:	00000013          	nop
    cc000550:	00000013          	nop
    cc000554:	00000013          	nop
    cc000558:	00000013          	nop
    cc00055c:	00000013          	nop
    cc000560:	00000013          	nop
    cc000564:	00000013          	nop
    cc000568:	00000013          	nop
    cc00056c:	00000013          	nop
    cc000570:	00000013          	nop
    cc000574:	00000013          	nop
    cc000578:	00000013          	nop
    cc00057c:	00000013          	nop
    cc000580:	00000013          	nop
    cc000584:	00000013          	nop
    cc000588:	00000013          	nop
    cc00058c:	00000013          	nop
    cc000590:	00000013          	nop
    cc000594:	00000013          	nop
    cc000598:	00000013          	nop
    cc00059c:	00000013          	nop
    cc0005a0:	00000013          	nop
    cc0005a4:	00000013          	nop
    cc0005a8:	00000013          	nop
    cc0005ac:	00000013          	nop
    cc0005b0:	00000013          	nop
    cc0005b4:	00000013          	nop
    cc0005b8:	00000013          	nop
    cc0005bc:	00000013          	nop
    cc0005c0:	00000013          	nop
    cc0005c4:	00000013          	nop
    cc0005c8:	00000013          	nop
    cc0005cc:	00000013          	nop
    cc0005d0:	00000013          	nop
    cc0005d4:	00000013          	nop
    cc0005d8:	00000013          	nop
    cc0005dc:	00000013          	nop
    cc0005e0:	00000013          	nop
    cc0005e4:	00000013          	nop
    cc0005e8:	00000013          	nop
    cc0005ec:	00000013          	nop
    cc0005f0:	00000013          	nop
    cc0005f4:	00000013          	nop
    cc0005f8:	00000013          	nop
    cc0005fc:	00000013          	nop
    cc000600:	00000013          	nop
    cc000604:	00000013          	nop
    cc000608:	00000013          	nop
    cc00060c:	00000013          	nop
    cc000610:	00000013          	nop
    cc000614:	00000013          	nop
    cc000618:	00000013          	nop
    cc00061c:	00000013          	nop
    cc000620:	00000013          	nop
    cc000624:	00000013          	nop
    cc000628:	00000013          	nop
    cc00062c:	00000013          	nop
    cc000630:	00000013          	nop
    cc000634:	00000013          	nop
    cc000638:	00000013          	nop
    cc00063c:	00000013          	nop
    cc000640:	00000013          	nop
    cc000644:	00000013          	nop
    cc000648:	00000013          	nop
    cc00064c:	00000013          	nop
    cc000650:	00000013          	nop
    cc000654:	00000013          	nop
    cc000658:	00000013          	nop
    cc00065c:	00000013          	nop
    cc000660:	00000013          	nop
    cc000664:	00000013          	nop
    cc000668:	00000013          	nop
    cc00066c:	00000013          	nop
    cc000670:	00000013          	nop
    cc000674:	00000013          	nop
    cc000678:	00000013          	nop
    cc00067c:	00000013          	nop
    cc000680:	00000013          	nop
    cc000684:	00000013          	nop
    cc000688:	00000013          	nop
    cc00068c:	00000013          	nop
    cc000690:	00000013          	nop
    cc000694:	00000013          	nop
    cc000698:	00000013          	nop
    cc00069c:	00000013          	nop
    cc0006a0:	00000013          	nop
    cc0006a4:	00000013          	nop
    cc0006a8:	00000013          	nop
    cc0006ac:	00000013          	nop
    cc0006b0:	00000013          	nop
    cc0006b4:	00000013          	nop
    cc0006b8:	00000013          	nop
    cc0006bc:	00000013          	nop
    cc0006c0:	00000013          	nop
    cc0006c4:	00000013          	nop
    cc0006c8:	00000013          	nop
    cc0006cc:	00000013          	nop
    cc0006d0:	00000013          	nop
    cc0006d4:	00000013          	nop
    cc0006d8:	00000013          	nop
    cc0006dc:	00000013          	nop
    cc0006e0:	00000013          	nop
    cc0006e4:	00000013          	nop
    cc0006e8:	00000013          	nop
    cc0006ec:	00000013          	nop
    cc0006f0:	00000013          	nop
    cc0006f4:	00000013          	nop
    cc0006f8:	00000013          	nop
    cc0006fc:	00000013          	nop
    cc000700:	00000013          	nop
    cc000704:	00000013          	nop
    cc000708:	00000013          	nop
    cc00070c:	00000013          	nop
    cc000710:	00000013          	nop
    cc000714:	00000013          	nop
    cc000718:	00000013          	nop
    cc00071c:	00000013          	nop
    cc000720:	00000013          	nop
    cc000724:	00000013          	nop
    cc000728:	00000013          	nop
    cc00072c:	00000013          	nop
    cc000730:	00000013          	nop
    cc000734:	00000013          	nop
    cc000738:	00000013          	nop
    cc00073c:	00000013          	nop
    cc000740:	00000013          	nop
    cc000744:	00000013          	nop
    cc000748:	00000013          	nop
    cc00074c:	00000013          	nop
    cc000750:	00000013          	nop
    cc000754:	00000013          	nop
    cc000758:	00000013          	nop
    cc00075c:	00000013          	nop
    cc000760:	00000013          	nop
    cc000764:	00000013          	nop
    cc000768:	00000013          	nop
    cc00076c:	00000013          	nop
    cc000770:	00000013          	nop
    cc000774:	00000013          	nop
    cc000778:	00000013          	nop
    cc00077c:	00000013          	nop
    cc000780:	00000013          	nop
    cc000784:	00000013          	nop
    cc000788:	00000013          	nop
    cc00078c:	00000013          	nop
    cc000790:	00000013          	nop
    cc000794:	00000013          	nop
    cc000798:	00000013          	nop
    cc00079c:	00000013          	nop
    cc0007a0:	00000013          	nop
    cc0007a4:	00000013          	nop
    cc0007a8:	00000013          	nop
    cc0007ac:	00000013          	nop
    cc0007b0:	00000013          	nop
    cc0007b4:	00000013          	nop
    cc0007b8:	00000013          	nop
    cc0007bc:	00000013          	nop
    cc0007c0:	00000013          	nop
    cc0007c4:	00000013          	nop
    cc0007c8:	00000013          	nop
    cc0007cc:	00000013          	nop
    cc0007d0:	00000013          	nop
    cc0007d4:	00000013          	nop
    cc0007d8:	00000013          	nop
    cc0007dc:	00000013          	nop
    cc0007e0:	00000013          	nop
    cc0007e4:	00000013          	nop
    cc0007e8:	00000013          	nop
    cc0007ec:	00000013          	nop
    cc0007f0:	00000013          	nop
    cc0007f4:	00000013          	nop
    cc0007f8:	00000013          	nop
    cc0007fc:	00000013          	nop
    cc000800:	00000013          	nop
    cc000804:	00000013          	nop
    cc000808:	00000013          	nop
    cc00080c:	00000013          	nop
    cc000810:	00000013          	nop
    cc000814:	00000013          	nop
    cc000818:	00000013          	nop
    cc00081c:	00000013          	nop
    cc000820:	00000013          	nop
    cc000824:	00000013          	nop
    cc000828:	00000013          	nop
    cc00082c:	00000013          	nop
    cc000830:	00000013          	nop
    cc000834:	00000013          	nop
    cc000838:	00000013          	nop
    cc00083c:	00000013          	nop
    cc000840:	00000013          	nop
    cc000844:	00000013          	nop
    cc000848:	00000013          	nop
    cc00084c:	00000013          	nop
    cc000850:	00000013          	nop
    cc000854:	00000013          	nop
    cc000858:	00000013          	nop
    cc00085c:	00000013          	nop
    cc000860:	00000013          	nop
    cc000864:	00000013          	nop
    cc000868:	00000013          	nop
    cc00086c:	00000013          	nop
    cc000870:	00000013          	nop
    cc000874:	00000013          	nop
    cc000878:	00000013          	nop
    cc00087c:	00000013          	nop
    cc000880:	00000013          	nop
    cc000884:	00000013          	nop
    cc000888:	00000013          	nop
    cc00088c:	00000013          	nop
    cc000890:	00000013          	nop
    cc000894:	00000013          	nop
    cc000898:	00000013          	nop
    cc00089c:	00000013          	nop
    cc0008a0:	00000013          	nop
    cc0008a4:	00000013          	nop
    cc0008a8:	00000013          	nop
    cc0008ac:	00000013          	nop
    cc0008b0:	00000013          	nop
    cc0008b4:	00000013          	nop
    cc0008b8:	00000013          	nop
    cc0008bc:	00000013          	nop
    cc0008c0:	00000013          	nop
    cc0008c4:	00000013          	nop
    cc0008c8:	00000013          	nop
    cc0008cc:	00000013          	nop
    cc0008d0:	00000013          	nop
    cc0008d4:	00000013          	nop
    cc0008d8:	00000013          	nop
    cc0008dc:	00000013          	nop
    cc0008e0:	00000013          	nop
    cc0008e4:	00000013          	nop
    cc0008e8:	00000013          	nop
    cc0008ec:	00000013          	nop
    cc0008f0:	00000013          	nop
    cc0008f4:	00000013          	nop
    cc0008f8:	00000013          	nop
    cc0008fc:	00000013          	nop
    cc000900:	00000013          	nop
    cc000904:	00000013          	nop
    cc000908:	00000013          	nop
    cc00090c:	00000013          	nop
    cc000910:	00000013          	nop
    cc000914:	00000013          	nop
    cc000918:	00000013          	nop
    cc00091c:	00000013          	nop
    cc000920:	00000013          	nop
    cc000924:	00000013          	nop
    cc000928:	00000013          	nop
    cc00092c:	00000013          	nop
    cc000930:	00000013          	nop
    cc000934:	00000013          	nop
    cc000938:	00000013          	nop
    cc00093c:	00000013          	nop
    cc000940:	00000013          	nop
    cc000944:	00000013          	nop
    cc000948:	00000013          	nop
    cc00094c:	00000013          	nop
    cc000950:	00000013          	nop
    cc000954:	00000013          	nop
    cc000958:	00000013          	nop
    cc00095c:	00000013          	nop
    cc000960:	00000013          	nop
    cc000964:	00000013          	nop
    cc000968:	00000013          	nop
    cc00096c:	00000013          	nop
    cc000970:	00000013          	nop
    cc000974:	00000013          	nop
    cc000978:	00000013          	nop
    cc00097c:	00000013          	nop
    cc000980:	00000013          	nop
    cc000984:	00000013          	nop
    cc000988:	00000013          	nop
    cc00098c:	00000013          	nop
    cc000990:	00000013          	nop
    cc000994:	00000013          	nop
    cc000998:	00000013          	nop
    cc00099c:	00000013          	nop
    cc0009a0:	00000013          	nop
    cc0009a4:	00000013          	nop
    cc0009a8:	00000013          	nop
    cc0009ac:	00000013          	nop
    cc0009b0:	00000013          	nop
    cc0009b4:	00000013          	nop
    cc0009b8:	00000013          	nop
    cc0009bc:	00000013          	nop
    cc0009c0:	00000013          	nop
    cc0009c4:	00000013          	nop
    cc0009c8:	00000013          	nop
    cc0009cc:	00000013          	nop
    cc0009d0:	00000013          	nop
    cc0009d4:	00000013          	nop
    cc0009d8:	00000013          	nop
    cc0009dc:	00000013          	nop
    cc0009e0:	00000013          	nop
    cc0009e4:	00000013          	nop
    cc0009e8:	00000013          	nop
    cc0009ec:	00000013          	nop
    cc0009f0:	00000013          	nop
    cc0009f4:	00000013          	nop
    cc0009f8:	00000013          	nop
    cc0009fc:	00000013          	nop
    cc000a00:	00000013          	nop
    cc000a04:	00000013          	nop
    cc000a08:	00000013          	nop
    cc000a0c:	00000013          	nop
    cc000a10:	00000013          	nop
    cc000a14:	00000013          	nop
    cc000a18:	00000013          	nop
    cc000a1c:	00000013          	nop
    cc000a20:	00000013          	nop
    cc000a24:	00000013          	nop
    cc000a28:	00000013          	nop
    cc000a2c:	00000013          	nop
    cc000a30:	00000013          	nop
    cc000a34:	00000013          	nop
    cc000a38:	00000013          	nop
    cc000a3c:	00000013          	nop
    cc000a40:	00000013          	nop
    cc000a44:	00000013          	nop
    cc000a48:	00000013          	nop
    cc000a4c:	00000013          	nop
    cc000a50:	00000013          	nop
    cc000a54:	00000013          	nop
    cc000a58:	00000013          	nop
    cc000a5c:	00000013          	nop
    cc000a60:	00000013          	nop
    cc000a64:	00000013          	nop
    cc000a68:	00000013          	nop
    cc000a6c:	00000013          	nop
    cc000a70:	00000013          	nop
    cc000a74:	00000013          	nop
    cc000a78:	00000013          	nop
    cc000a7c:	00000013          	nop
    cc000a80:	00000013          	nop
    cc000a84:	00000013          	nop
    cc000a88:	00000013          	nop
    cc000a8c:	00000013          	nop
    cc000a90:	00000013          	nop
    cc000a94:	00000013          	nop
    cc000a98:	00000013          	nop
    cc000a9c:	00000013          	nop
    cc000aa0:	00000013          	nop
    cc000aa4:	00000013          	nop
    cc000aa8:	00000013          	nop
    cc000aac:	00000013          	nop
    cc000ab0:	00000013          	nop
    cc000ab4:	00000013          	nop
    cc000ab8:	00000013          	nop
    cc000abc:	00000013          	nop
    cc000ac0:	00000013          	nop
    cc000ac4:	00000013          	nop
    cc000ac8:	00000013          	nop
    cc000acc:	00000013          	nop
    cc000ad0:	00000013          	nop
    cc000ad4:	00000013          	nop
    cc000ad8:	00000013          	nop
    cc000adc:	00000013          	nop
    cc000ae0:	00000013          	nop
    cc000ae4:	00000013          	nop
    cc000ae8:	00000013          	nop
    cc000aec:	00000013          	nop
    cc000af0:	00000013          	nop
    cc000af4:	00000013          	nop
    cc000af8:	00000013          	nop
    cc000afc:	00000013          	nop
    cc000b00:	00000013          	nop
    cc000b04:	00000013          	nop
    cc000b08:	00000013          	nop
    cc000b0c:	00000013          	nop
    cc000b10:	00000013          	nop
    cc000b14:	00000013          	nop
    cc000b18:	00000013          	nop
    cc000b1c:	00000013          	nop
    cc000b20:	00000013          	nop
    cc000b24:	00000013          	nop
    cc000b28:	00000013          	nop
    cc000b2c:	00000013          	nop
    cc000b30:	00000013          	nop
    cc000b34:	00000013          	nop
    cc000b38:	00000013          	nop
    cc000b3c:	00000013          	nop
    cc000b40:	00000013          	nop
    cc000b44:	00000013          	nop
    cc000b48:	00000013          	nop
    cc000b4c:	00000013          	nop
    cc000b50:	00000013          	nop
    cc000b54:	00000013          	nop
    cc000b58:	00000013          	nop
    cc000b5c:	00000013          	nop
    cc000b60:	00000013          	nop
    cc000b64:	00000013          	nop
    cc000b68:	00000013          	nop
    cc000b6c:	00000013          	nop
    cc000b70:	00000013          	nop
    cc000b74:	00000013          	nop
    cc000b78:	00000013          	nop
    cc000b7c:	00000013          	nop
    cc000b80:	00000013          	nop
    cc000b84:	00000013          	nop
    cc000b88:	00000013          	nop
    cc000b8c:	00000013          	nop
    cc000b90:	00000013          	nop
    cc000b94:	00000013          	nop
    cc000b98:	00000013          	nop
    cc000b9c:	00000013          	nop
    cc000ba0:	00000013          	nop
    cc000ba4:	00000013          	nop
    cc000ba8:	00000013          	nop
    cc000bac:	00000013          	nop
    cc000bb0:	00000013          	nop
    cc000bb4:	00000013          	nop
    cc000bb8:	00000013          	nop
    cc000bbc:	00000013          	nop
    cc000bc0:	00000013          	nop
    cc000bc4:	00000013          	nop
    cc000bc8:	00000013          	nop
    cc000bcc:	00000013          	nop
    cc000bd0:	00000013          	nop
    cc000bd4:	00000013          	nop
    cc000bd8:	00000013          	nop
    cc000bdc:	00000013          	nop
    cc000be0:	00000013          	nop
    cc000be4:	00000013          	nop
    cc000be8:	00000013          	nop
    cc000bec:	00000013          	nop
    cc000bf0:	00000013          	nop
    cc000bf4:	00000013          	nop
    cc000bf8:	00000013          	nop
    cc000bfc:	00000013          	nop
    cc000c00:	00000013          	nop
    cc000c04:	00000013          	nop
    cc000c08:	00000013          	nop
    cc000c0c:	00000013          	nop
    cc000c10:	00000013          	nop
    cc000c14:	00000013          	nop
    cc000c18:	00000013          	nop
    cc000c1c:	00000013          	nop
    cc000c20:	00000013          	nop
    cc000c24:	00000013          	nop
    cc000c28:	00000013          	nop
    cc000c2c:	00000013          	nop
    cc000c30:	00000013          	nop
    cc000c34:	00000013          	nop
    cc000c38:	00000013          	nop
    cc000c3c:	00000013          	nop
    cc000c40:	00000013          	nop
    cc000c44:	00000013          	nop
    cc000c48:	00000013          	nop
    cc000c4c:	00000013          	nop
    cc000c50:	00000013          	nop
    cc000c54:	00000013          	nop
    cc000c58:	00000013          	nop
    cc000c5c:	00000013          	nop
    cc000c60:	00000013          	nop
    cc000c64:	00000013          	nop
    cc000c68:	00000013          	nop
    cc000c6c:	00000013          	nop
    cc000c70:	00000013          	nop
    cc000c74:	00000013          	nop
    cc000c78:	00000013          	nop
    cc000c7c:	00000013          	nop
    cc000c80:	00000013          	nop
    cc000c84:	00000013          	nop
    cc000c88:	00000013          	nop
    cc000c8c:	00000013          	nop
    cc000c90:	00000013          	nop
    cc000c94:	00000013          	nop
    cc000c98:	00000013          	nop
    cc000c9c:	00000013          	nop
    cc000ca0:	00000013          	nop
    cc000ca4:	00000013          	nop
    cc000ca8:	00000013          	nop
    cc000cac:	00000013          	nop
    cc000cb0:	00000013          	nop
    cc000cb4:	00000013          	nop
    cc000cb8:	00000013          	nop
    cc000cbc:	00000013          	nop
    cc000cc0:	00000013          	nop
    cc000cc4:	00000013          	nop
    cc000cc8:	00000013          	nop
    cc000ccc:	00000013          	nop
    cc000cd0:	00000013          	nop
    cc000cd4:	00000013          	nop
    cc000cd8:	00000013          	nop
    cc000cdc:	00000013          	nop
    cc000ce0:	00000013          	nop
    cc000ce4:	00000013          	nop
    cc000ce8:	00000013          	nop
    cc000cec:	00000013          	nop
    cc000cf0:	00000013          	nop
    cc000cf4:	00000013          	nop
    cc000cf8:	00000013          	nop
    cc000cfc:	00000013          	nop
    cc000d00:	00000013          	nop
    cc000d04:	00000013          	nop
    cc000d08:	00000013          	nop
    cc000d0c:	00000013          	nop
    cc000d10:	00000013          	nop
    cc000d14:	00000013          	nop
    cc000d18:	00000013          	nop
    cc000d1c:	00000013          	nop
    cc000d20:	00000013          	nop
    cc000d24:	00000013          	nop
    cc000d28:	00000013          	nop
    cc000d2c:	00000013          	nop
    cc000d30:	00000013          	nop
    cc000d34:	00000013          	nop
    cc000d38:	00000013          	nop
    cc000d3c:	00000013          	nop
    cc000d40:	00000013          	nop
    cc000d44:	00000013          	nop
    cc000d48:	00000013          	nop
    cc000d4c:	00000013          	nop
    cc000d50:	00000013          	nop
    cc000d54:	00000013          	nop
    cc000d58:	00000013          	nop
    cc000d5c:	00000013          	nop
    cc000d60:	00000013          	nop
    cc000d64:	00000013          	nop
    cc000d68:	00000013          	nop
    cc000d6c:	00000013          	nop
    cc000d70:	00000013          	nop
    cc000d74:	00000013          	nop
    cc000d78:	00000013          	nop
    cc000d7c:	00000013          	nop
    cc000d80:	00000013          	nop
    cc000d84:	00000013          	nop
    cc000d88:	00000013          	nop
    cc000d8c:	00000013          	nop
    cc000d90:	00000013          	nop
    cc000d94:	00000013          	nop
    cc000d98:	00000013          	nop
    cc000d9c:	00000013          	nop
    cc000da0:	00000013          	nop
    cc000da4:	00000013          	nop
    cc000da8:	00000013          	nop
    cc000dac:	00000013          	nop
    cc000db0:	00000013          	nop
    cc000db4:	00000013          	nop
    cc000db8:	00000013          	nop
    cc000dbc:	00000013          	nop
    cc000dc0:	00000013          	nop
    cc000dc4:	00000013          	nop
    cc000dc8:	00000013          	nop
    cc000dcc:	00000013          	nop
    cc000dd0:	00000013          	nop
    cc000dd4:	00000013          	nop
    cc000dd8:	00000013          	nop
    cc000ddc:	00000013          	nop
    cc000de0:	00000013          	nop
    cc000de4:	00000013          	nop
    cc000de8:	00000013          	nop
    cc000dec:	00000013          	nop
    cc000df0:	00000013          	nop
    cc000df4:	00000013          	nop
    cc000df8:	00000013          	nop
    cc000dfc:	00000013          	nop
    cc000e00:	00000013          	nop
    cc000e04:	00000013          	nop
    cc000e08:	00000013          	nop
    cc000e0c:	00000013          	nop
    cc000e10:	00000013          	nop
    cc000e14:	00000013          	nop
    cc000e18:	00000013          	nop
    cc000e1c:	00000013          	nop
    cc000e20:	00000013          	nop
    cc000e24:	00000013          	nop
    cc000e28:	00000013          	nop
    cc000e2c:	00000013          	nop
    cc000e30:	00000013          	nop
    cc000e34:	00000013          	nop
    cc000e38:	00000013          	nop
    cc000e3c:	00000013          	nop
    cc000e40:	00000013          	nop
    cc000e44:	00000013          	nop
    cc000e48:	00000013          	nop
    cc000e4c:	00000013          	nop
    cc000e50:	00000013          	nop
    cc000e54:	00000013          	nop
    cc000e58:	00000013          	nop
    cc000e5c:	00000013          	nop
    cc000e60:	00000013          	nop
    cc000e64:	00000013          	nop
    cc000e68:	00000013          	nop
    cc000e6c:	00000013          	nop
    cc000e70:	00000013          	nop
    cc000e74:	00000013          	nop
    cc000e78:	00000013          	nop
    cc000e7c:	00000013          	nop
    cc000e80:	00000013          	nop
    cc000e84:	00000013          	nop
    cc000e88:	00000013          	nop
    cc000e8c:	00000013          	nop
    cc000e90:	00000013          	nop
    cc000e94:	00000013          	nop
    cc000e98:	00000013          	nop
    cc000e9c:	00000013          	nop
    cc000ea0:	00000013          	nop
    cc000ea4:	00000013          	nop
    cc000ea8:	00000013          	nop
    cc000eac:	00000013          	nop
    cc000eb0:	00000013          	nop
    cc000eb4:	00000013          	nop
    cc000eb8:	00000013          	nop
    cc000ebc:	00000013          	nop
    cc000ec0:	00000013          	nop
    cc000ec4:	00000013          	nop
    cc000ec8:	00000013          	nop
    cc000ecc:	00000013          	nop
    cc000ed0:	00000013          	nop
    cc000ed4:	00000013          	nop
    cc000ed8:	00000013          	nop
    cc000edc:	00000013          	nop
    cc000ee0:	00000013          	nop
    cc000ee4:	00000013          	nop
    cc000ee8:	00000013          	nop
    cc000eec:	00000013          	nop
    cc000ef0:	00000013          	nop
    cc000ef4:	00000013          	nop
    cc000ef8:	00000013          	nop
    cc000efc:	00000013          	nop
    cc000f00:	00000013          	nop
    cc000f04:	00000013          	nop
    cc000f08:	00000013          	nop
    cc000f0c:	00000013          	nop
    cc000f10:	00000013          	nop
    cc000f14:	00000013          	nop
    cc000f18:	00000013          	nop
    cc000f1c:	00000013          	nop
    cc000f20:	00000013          	nop
    cc000f24:	00000013          	nop
    cc000f28:	00000013          	nop
    cc000f2c:	00000013          	nop
    cc000f30:	00000013          	nop
    cc000f34:	00000013          	nop
    cc000f38:	00000013          	nop
    cc000f3c:	00000013          	nop
    cc000f40:	00000013          	nop
    cc000f44:	00000013          	nop
    cc000f48:	00000013          	nop
    cc000f4c:	00000013          	nop
    cc000f50:	00000013          	nop
    cc000f54:	00000013          	nop
    cc000f58:	00000013          	nop
    cc000f5c:	00000013          	nop
    cc000f60:	00000013          	nop
    cc000f64:	00000013          	nop
    cc000f68:	00000013          	nop
    cc000f6c:	00000013          	nop
    cc000f70:	00000013          	nop
    cc000f74:	00000013          	nop
    cc000f78:	00000013          	nop
    cc000f7c:	00000013          	nop
    cc000f80:	00000013          	nop
    cc000f84:	00000013          	nop
    cc000f88:	00000013          	nop
    cc000f8c:	00000013          	nop
    cc000f90:	00000013          	nop
    cc000f94:	00000013          	nop
    cc000f98:	00000013          	nop
    cc000f9c:	00000013          	nop
    cc000fa0:	00000013          	nop
    cc000fa4:	00000013          	nop
    cc000fa8:	00000013          	nop
    cc000fac:	00000013          	nop
    cc000fb0:	00000013          	nop
    cc000fb4:	00000013          	nop
    cc000fb8:	00000013          	nop
    cc000fbc:	00000013          	nop
    cc000fc0:	00000013          	nop
    cc000fc4:	00000013          	nop
    cc000fc8:	00000013          	nop
    cc000fcc:	00000013          	nop
    cc000fd0:	00000013          	nop
    cc000fd4:	00000013          	nop
    cc000fd8:	00000013          	nop
    cc000fdc:	00000013          	nop
    cc000fe0:	00000013          	nop
    cc000fe4:	00000013          	nop
    cc000fe8:	00000013          	nop
    cc000fec:	00000013          	nop
    cc000ff0:	00000013          	nop
    cc000ff4:	00000013          	nop
    cc000ff8:	00000013          	nop
    cc000ffc:	00000013          	nop

00000000cc001000 <user_code>:
    cc001000:	6285                	lui	t0,0x1
    cc001002:	0002b303          	ld	t1,0(t0) # 1000 <main-0xcbfff000>
    cc001006:	0082b383          	ld	t2,8(t0)
    cc00100a:	0102be03          	ld	t3,16(t0)
    cc00100e:	0182be83          	ld	t4,24(t0)

00000000cc001012 <user_loop>:
    cc001012:	a001                	j	cc001012 <user_loop>
	...
